target datalayout = "e-m:e-p270:32:32-p271:32:32-p272:64:64-i64:64-i128:128-f80:128-n8:16:32:64-S128"
target triple = "x86_64-pc-linux-gnu"

%struct.quic_port_st = type { ptr, %struct.anon, ptr, ptr, ptr, ptr, ptr, ptr, %struct.ossl_list_st_ch, %struct.ossl_list_st_incoming_ch, ptr, ptr, ptr, ptr, i8, i8, i16, ptr }
%struct.anon = type { ptr, ptr }
%struct.ossl_list_st_ch = type { ptr, ptr, i64 }
%struct.ossl_list_st_incoming_ch = type { ptr, ptr, i64 }
%struct.OSSL_TIME = type { i64 }
%struct.quic_channel_st = type { ptr, %struct.anon.0, %struct.anon.1, ptr, ptr, ptr, ptr, ptr, ptr, ptr, i64, %union.bio_addr_st, ptr, ptr, ptr, %struct.quic_txfc_st, %struct.quic_rxfc_st, [3 x %struct.quic_rxfc_st], %struct.quic_rxfc_st, %struct.quic_rxfc_st, %struct.quic_stream_map_st, %struct.ossl_statm_st, ptr, ptr, ptr, ptr, ptr, ptr, ptr, ptr, [3 x ptr], [3 x ptr], %struct.quic_conn_id_st, %struct.quic_conn_id_st, %struct.quic_conn_id_st, %struct.quic_conn_id_st, %struct.quic_conn_id_st, %struct.quic_conn_id_st, i64, i64, i64, i64, i64, i64, i64, i64, i64, i64, i8, i16, ptr, i64, i64, i64, i64, i64, i64, i64, i64, i64, i64, i64, i64, i64, %struct.quic_terminate_cause_st, %struct.OSSL_TIME, %struct.OSSL_TIME, %struct.OSSL_TIME, %struct.OSSL_TIME, %struct.OSSL_TIME, i64, i64, i64, ptr, ptr, i64, ptr }
%struct.anon.0 = type { ptr, ptr }
%struct.anon.1 = type { ptr, ptr }
%union.bio_addr_st = type { %struct.sockaddr_in6, [84 x i8] }
%struct.sockaddr_in6 = type { i16, i16, i32, %struct.in6_addr, i32 }
%struct.in6_addr = type { %union.anon }
%union.anon = type { [4 x i32] }
%struct.quic_txfc_st = type { ptr, i64, i64, i8 }
%struct.quic_rxfc_st = type { i64, i64, i64, i64, i64, i64, i64, %struct.OSSL_TIME, ptr, ptr, ptr, i8, i8, i8, i8 }
%struct.quic_stream_map_st = type { ptr, %struct.quic_stream_list_node_st, %struct.quic_stream_list_node_st, %struct.quic_stream_list_node_st, i64, i64, i64, i64, i64, ptr, ptr, ptr, ptr, ptr, i32 }
%struct.quic_stream_list_node_st = type { ptr, ptr }
%struct.ossl_statm_st = type { %struct.OSSL_TIME, %struct.OSSL_TIME, %struct.OSSL_TIME, %struct.OSSL_TIME, i8 }
%struct.quic_conn_id_st = type { i8, [20 x i8] }
%struct.quic_terminate_cause_st = type { i64, i64, ptr, i64, i8 }

; Function Attrs: inlinehint nounwind uwtable
define internal void @ossl_list_incoming_ch_insert_tail(ptr noundef %0, ptr noundef %1) #3 {
  %3 = alloca ptr, align 8
  %4 = alloca ptr, align 8
  store ptr %0, ptr %3, align 8, !tbaa !60
  store ptr %1, ptr %4, align 8, !tbaa !67
  %5 = load ptr, ptr %3, align 8, !tbaa !60
  %6 = getelementptr inbounds nuw %struct.ossl_list_st_incoming_ch, ptr %5, i32 0, i32 1
  %7 = load ptr, ptr %6, align 8, !tbaa !148
  %8 = icmp ne ptr %7, null
  br i1 %8, label %9, label %16

9:                                                ; preds = %2
  %10 = load ptr, ptr %4, align 8, !tbaa !67
  %11 = load ptr, ptr %3, align 8, !tbaa !60
  %12 = getelementptr inbounds nuw %struct.ossl_list_st_incoming_ch, ptr %11, i32 0, i32 1
  %13 = load ptr, ptr %12, align 8, !tbaa !148
  %14 = getelementptr inbounds nuw %struct.quic_channel_st, ptr %13, i32 0, i32 2
  %15 = getelementptr inbounds nuw %struct.anon.1, ptr %14, i32 0, i32 0
  store ptr %10, ptr %15, align 8, !tbaa !147
  br label %16

16:                                               ; preds = %9, %2
  %17 = load ptr, ptr %3, align 8, !tbaa !60
  %18 = getelementptr inbounds nuw %struct.ossl_list_st_incoming_ch, ptr %17, i32 0, i32 1
  %19 = load ptr, ptr %18, align 8, !tbaa !148
  %20 = load ptr, ptr %4, align 8, !tbaa !67
  %21 = getelementptr inbounds nuw %struct.quic_channel_st, ptr %20, i32 0, i32 2
  %22 = getelementptr inbounds nuw %struct.anon.1, ptr %21, i32 0, i32 1
  store ptr %19, ptr %22, align 8, !tbaa !149
  %23 = load ptr, ptr %4, align 8, !tbaa !67
  %24 = getelementptr inbounds nuw %struct.quic_channel_st, ptr %23, i32 0, i32 2
  %25 = getelementptr inbounds nuw %struct.anon.1, ptr %24, i32 0, i32 0
  store ptr null, ptr %25, align 8, !tbaa !147
  %26 = load ptr, ptr %4, align 8, !tbaa !67
  %27 = load ptr, ptr %3, align 8, !tbaa !60
  %28 = getelementptr inbounds nuw %struct.ossl_list_st_incoming_ch, ptr %27, i32 0, i32 1
  store ptr %26, ptr %28, align 8, !tbaa !148
  %29 = load ptr, ptr %3, align 8, !tbaa !60
  %30 = getelementptr inbounds nuw %struct.ossl_list_st_incoming_ch, ptr %29, i32 0, i32 0
  %31 = load ptr, ptr %30, align 8, !tbaa !146
  %32 = icmp eq ptr %31, null
  br i1 %32, label %33, label %37

33:                                               ; preds = %16
  %34 = load ptr, ptr %4, align 8, !tbaa !67
  %35 = load ptr, ptr %3, align 8, !tbaa !60
  %36 = getelementptr inbounds nuw %struct.ossl_list_st_incoming_ch, ptr %35, i32 0, i32 0
  store ptr %34, ptr %36, align 8, !tbaa !146
  br label %37

37:                                               ; preds = %33, %16
  %38 = load ptr, ptr %3, align 8, !tbaa !60
  %39 = getelementptr inbounds nuw %struct.ossl_list_st_incoming_ch, ptr %38, i32 0, i32 2
  %40 = load i64, ptr %39, align 8, !tbaa !62
  %41 = add i64 %40, 1
  store i64 %41, ptr %39, align 8, !tbaa !62
  ret void
}

; Function Attrs: nounwind uwtable
define internal void @port_bind_channel(ptr noundef %0, ptr noundef %1, ptr noundef %2, ptr noundef %3, ptr noundef %4, ptr noundef %5) #0 {
  %7 = alloca ptr, align 8
  %8 = alloca ptr, align 8
  %9 = alloca ptr, align 8
  %10 = alloca ptr, align 8
  %11 = alloca ptr, align 8
  %12 = alloca ptr, align 8
  %13 = alloca ptr, align 8
  %14 = alloca i32, align 4
  store ptr %0, ptr %7, align 8, !tbaa !8
  store ptr %1, ptr %8, align 8, !tbaa !218
  store ptr %2, ptr %9, align 8, !tbaa !197
  store ptr %3, ptr %10, align 8, !tbaa !197
  store ptr %4, ptr %11, align 8, !tbaa !197
  store ptr %5, ptr %12, align 8, !tbaa !238
  call void @llvm.lifetime.start.p0(i64 8, ptr %13) #8
  %15 = load ptr, ptr %7, align 8, !tbaa !8
  %16 = getelementptr inbounds nuw %struct.quic_port_st, ptr %15, i32 0, i32 10
  %17 = load ptr, ptr %16, align 8, !tbaa !145
  %18 = icmp ne ptr %17, null
  br i1 %18, label %19, label %25

19:                                               ; preds = %6
  %20 = load ptr, ptr %7, align 8, !tbaa !8
  %21 = getelementptr inbounds nuw %struct.quic_port_st, ptr %20, i32 0, i32 10
  %22 = load ptr, ptr %21, align 8, !tbaa !145
  store ptr %22, ptr %13, align 8, !tbaa !67
  %23 = load ptr, ptr %7, align 8, !tbaa !8
  %24 = getelementptr inbounds nuw %struct.quic_port_st, ptr %23, i32 0, i32 10
  store ptr null, ptr %24, align 8, !tbaa !145
  br label %28

25:                                               ; preds = %6
  %26 = load ptr, ptr %7, align 8, !tbaa !8
  %27 = call ptr @port_make_channel(ptr noundef %26, ptr noundef null, i32 noundef 1)
  store ptr %27, ptr %13, align 8, !tbaa !67
  br label %28

28:                                               ; preds = %25, %19
  %29 = load ptr, ptr %13, align 8, !tbaa !67
  %30 = icmp eq ptr %29, null
  br i1 %30, label %31, label %32

31:                                               ; preds = %28
  store i32 1, ptr %14, align 4
  br label %68

32:                                               ; preds = %28
  %33 = load ptr, ptr %11, align 8, !tbaa !197
  %34 = getelementptr inbounds nuw %struct.quic_conn_id_st, ptr %33, i32 0, i32 0
  %35 = load i8, ptr %34, align 1, !tbaa !205
  %36 = zext i8 %35 to i32
  %37 = icmp ne i32 %36, 0
  br i1 %37, label %38, label %52

38:                                               ; preds = %32
  %39 = load ptr, ptr %13, align 8, !tbaa !67
  %40 = getelementptr inbounds nuw %struct.quic_channel_st, ptr %39, i32 0, i32 12
  %41 = load ptr, ptr %40, align 8, !tbaa !240
  call void @ossl_quic_tx_packetiser_set_validated(ptr noundef %41)
  %42 = load ptr, ptr %13, align 8, !tbaa !67
  %43 = load ptr, ptr %8, align 8, !tbaa !218
  %44 = load ptr, ptr %9, align 8, !tbaa !197
  %45 = load ptr, ptr %10, align 8, !tbaa !197
  %46 = load ptr, ptr %11, align 8, !tbaa !197
  %47 = call i32 @ossl_quic_bind_channel(ptr noundef %42, ptr noundef %43, ptr noundef %44, ptr noundef %45, ptr noundef %46)
  %48 = icmp ne i32 %47, 0
  br i1 %48, label %51, label %49

49:                                               ; preds = %38
  %50 = load ptr, ptr %13, align 8, !tbaa !67
  call void @ossl_quic_channel_free(ptr noundef %50)
  store i32 1, ptr %14, align 4
  br label %68

51:                                               ; preds = %38
  br label %62

52:                                               ; preds = %32
  %53 = load ptr, ptr %13, align 8, !tbaa !67
  %54 = load ptr, ptr %8, align 8, !tbaa !218
  %55 = load ptr, ptr %9, align 8, !tbaa !197
  %56 = load ptr, ptr %10, align 8, !tbaa !197
  %57 = call i32 @ossl_quic_channel_on_new_conn(ptr noundef %53, ptr noundef %54, ptr noundef %55, ptr noundef %56)
  %58 = icmp ne i32 %57, 0
  br i1 %58, label %61, label %59

59:                                               ; preds = %52
  %60 = load ptr, ptr %13, align 8, !tbaa !67
  call void @ossl_quic_channel_free(ptr noundef %60)
  store i32 1, ptr %14, align 4
  br label %68

61:                                               ; preds = %52
  br label %62

62:                                               ; preds = %61, %51
  %63 = load ptr, ptr %7, align 8, !tbaa !8
  %64 = getelementptr inbounds nuw %struct.quic_port_st, ptr %63, i32 0, i32 9
  %65 = load ptr, ptr %13, align 8, !tbaa !67
  call void @ossl_list_incoming_ch_insert_tail(ptr noundef %64, ptr noundef %65)
  %66 = load ptr, ptr %13, align 8, !tbaa !67
  %67 = load ptr, ptr %12, align 8, !tbaa !238
  store ptr %66, ptr %67, align 8, !tbaa !67
  store i32 0, ptr %14, align 4
  br label %68

68:                                               ; preds = %62, %59, %49, %31
  call void @llvm.lifetime.end.p0(i64 8, ptr %13) #8
  %69 = load i32, ptr %14, align 4
  switch i32 %69, label %71 [
    i32 0, label %70
    i32 1, label %70
  ]

70:                                               ; preds = %68, %68
  ret void

71:                                               ; preds = %68
  unreachable
}