; Function Attrs: nounwind uwtable
define internal fastcc void @port_bind_channel(ptr noundef %0, ptr noundef %1, ptr noundef nonnull %2, ptr noundef nonnull %3, ptr noundef nonnull %4, ptr noundef nonnull writeonly captures(none) %5) unnamed_addr #0 {
  %7 = getelementptr inbounds nuw i8, ptr %0, i64 120
  %8 = load ptr, ptr %7, align 8, !tbaa !185
  %.not = icmp eq ptr %8, null
  br i1 %.not, label %9, label %.thread

.thread:                                          ; preds = %6
  store ptr null, ptr %7, align 8, !tbaa !185
  br label %12

9:                                                ; preds = %6
  %10 = tail call fastcc ptr @port_make_channel(ptr noundef nonnull %0, ptr noundef null, i32 noundef 1)
  %11 = icmp eq ptr %10, null
  br i1 %11, label %37, label %12

12:                                               ; preds = %.thread, %9
  %.027 = phi ptr [ %8, %.thread ], [ %10, %9 ]
  %13 = load i8, ptr %4, align 1, !tbaa !209
  %.not23 = icmp eq i8 %13, 0
  br i1 %.not23, label %19, label %14

14:                                               ; preds = %12
  %15 = getelementptr inbounds nuw i8, ptr %.027, i64 216
  %16 = load ptr, ptr %15, align 8, !tbaa !229
  tail call void @ossl_quic_tx_packetiser_set_validated(ptr noundef %16) #11
  %17 = tail call i32 @ossl_quic_bind_channel(ptr noundef nonnull %.027, ptr noundef %1, ptr noundef nonnull %2, ptr noundef nonnull %3, ptr noundef nonnull %4) #11
  %.not25 = icmp eq i32 %17, 0
  br i1 %.not25, label %18, label %22

18:                                               ; preds = %14
  tail call void @ossl_quic_channel_free(ptr noundef nonnull %.027) #11
  br label %37

19:                                               ; preds = %12
  %20 = tail call i32 @ossl_quic_channel_on_new_conn(ptr noundef nonnull %.027, ptr noundef %1, ptr noundef nonnull %2, ptr noundef nonnull %3) #11
  %.not24 = icmp eq i32 %20, 0
  br i1 %.not24, label %21, label %22

21:                                               ; preds = %19
  tail call void @ossl_quic_channel_free(ptr noundef nonnull %.027) #11
  br label %37

22:                                               ; preds = %19, %14
  %23 = getelementptr inbounds nuw i8, ptr %0, i64 96
  %24 = getelementptr inbounds nuw i8, ptr %0, i64 104
  %25 = load ptr, ptr %24, align 8, !tbaa !188
  %.not.i = icmp eq ptr %25, null
  br i1 %.not.i, label %28, label %26

26:                                               ; preds = %22
  %27 = getelementptr inbounds nuw i8, ptr %25, i64 24
  store ptr %.027, ptr %27, align 8, !tbaa !187
  br label %28

28:                                               ; preds = %26, %22
  %29 = getelementptr inbounds nuw i8, ptr %.027, i64 24
  %30 = getelementptr inbounds nuw i8, ptr %.027, i64 32
  store ptr %25, ptr %30, align 8, !tbaa !189
  store ptr null, ptr %29, align 8, !tbaa !187
  store ptr %.027, ptr %24, align 8, !tbaa !188
  %31 = load ptr, ptr %23, align 8, !tbaa !186
  %32 = icmp eq ptr %31, null
  br i1 %32, label %33, label %ossl_list_incoming_ch_insert_tail.exit

33:                                               ; preds = %28
  store ptr %.027, ptr %23, align 8, !tbaa !186
  br label %ossl_list_incoming_ch_insert_tail.exit

ossl_list_incoming_ch_insert_tail.exit:           ; preds = %28, %33
  %34 = getelementptr inbounds nuw i8, ptr %0, i64 112
  %35 = load i64, ptr %34, align 8, !tbaa !57
  %36 = add i64 %35, 1
  store i64 %36, ptr %34, align 8, !tbaa !57
  store ptr %.027, ptr %5, align 8, !tbaa !61
  br label %37

37:                                               ; preds = %9, %ossl_list_incoming_ch_insert_tail.exit, %21, %18
  ret void
}